target datalayout = "e-m:e-p270:32:32-p271:32:32-p272:64:64-i64:64-i128:128-f80:128-n8:16:32:64-S128"
target triple = "x86_64-pc-linux-gnu"

%struct.List = type { i32, i32, i32, ptr, [0 x %union.ListCell] }
%union.ListCell = type { ptr }
%struct.Node = type { i32 }
%struct.Path = type { i32, i32, ptr, ptr, ptr, i8, i8, i32, double, i32, double, double, ptr }
%struct.IndexPath = type { %struct.Path, ptr, ptr, ptr, ptr, i32, double, double }
%struct.IndexOptInfo = type { i32, i32, i32, ptr, i32, double, i32, i32, i32, ptr, ptr, ptr, ptr, ptr, ptr, ptr, ptr, ptr, i32, ptr, ptr, ptr, ptr, i8, i8, i8, i8, i8, i8, i8, i8, i8, i8, i8, i8, i8, ptr }
%struct.CustomPath = type { %struct.Path, i32, ptr, ptr, ptr, ptr }
%struct.ProjectionPath = type { %struct.Path, ptr, i8 }
%struct.AppendPath = type { %struct.Path, ptr, i32, double }
%struct.MergeAppendPath = type { %struct.Path, ptr, double }

; Function Attrs: inlinehint nounwind uwtable
define internal ptr @list_nth_cell(ptr noundef %0, i32 noundef %1) #5 {
  %3 = alloca ptr, align 8
  %4 = alloca i32, align 4
  store ptr %0, ptr %3, align 8
  store i32 %1, ptr %4, align 4
  %5 = load ptr, ptr %3, align 8
  %6 = getelementptr inbounds nuw %struct.List, ptr %5, i32 0, i32 3
  %7 = load ptr, ptr %6, align 8
  %8 = load i32, ptr %4, align 4
  %9 = sext i32 %8 to i64
  %10 = getelementptr inbounds %union.ListCell, ptr %7, i64 %9
  ret ptr %10
}

; Function Attrs: inlinehint nounwind uwtable
define internal i32 @list_length(ptr noundef %0) #5 {
  %2 = alloca ptr, align 8
  store ptr %0, ptr %2, align 8
  %3 = load ptr, ptr %2, align 8
  %4 = icmp ne ptr %3, null
  br i1 %4, label %5, label %9

5:                                                ; preds = %1
  %6 = load ptr, ptr %2, align 8
  %7 = getelementptr inbounds nuw %struct.List, ptr %6, i32 0, i32 1
  %8 = load i32, ptr %7, align 4
  br label %10

9:                                                ; preds = %1
  br label %10

10:                                               ; preds = %9, %5
  %11 = phi i32 [ %8, %5 ], [ 0, %9 ]
  ret i32 %11
}

; Function Attrs: nounwind uwtable
define dso_local zeroext i1 @ExecSupportsMarkRestore(ptr noundef %0) #0 {
  %2 = alloca i1, align 1
  %3 = alloca ptr, align 8
  %4 = alloca ptr, align 8
  %5 = alloca i32, align 4
  %6 = alloca ptr, align 8
  store ptr %0, ptr %3, align 8
  %7 = load ptr, ptr %3, align 8
  %8 = getelementptr inbounds nuw %struct.Path, ptr %7, i32 0, i32 1
  %9 = load i32, ptr %8, align 4
  switch i32 %9, label %81 [
    i32 340, label %10
    i32 341, label %10
    i32 359, label %17
    i32 361, label %17
    i32 354, label %18
    i32 330, label %26
    i32 333, label %49
    i32 334, label %65
  ]

10:                                               ; preds = %1, %1
  %11 = load ptr, ptr %3, align 8
  %12 = getelementptr inbounds nuw %struct.IndexPath, ptr %11, i32 0, i32 1
  %13 = load ptr, ptr %12, align 8
  %14 = getelementptr inbounds nuw %struct.IndexOptInfo, ptr %13, i32 0, i32 35
  %15 = load i8, ptr %14, align 4, !range !7, !noundef !8
  %16 = trunc i8 %15 to i1
  store i1 %16, ptr %2, align 1
  br label %83

17:                                               ; preds = %1, %1
  store i1 true, ptr %2, align 1
  br label %83

18:                                               ; preds = %1
  %19 = load ptr, ptr %3, align 8
  %20 = getelementptr inbounds nuw %struct.CustomPath, ptr %19, i32 0, i32 1
  %21 = load i32, ptr %20, align 8
  %22 = and i32 %21, 2
  %23 = icmp ne i32 %22, 0
  br i1 %23, label %24, label %25

24:                                               ; preds = %18
  store i1 true, ptr %2, align 1
  br label %83

25:                                               ; preds = %18
  store i1 false, ptr %2, align 1
  br label %83

26:                                               ; preds = %1
  %27 = load ptr, ptr %3, align 8
  %28 = getelementptr inbounds nuw %struct.Node, ptr %27, i32 0, i32 0
  %29 = load i32, ptr %28, align 4
  %30 = icmp eq i32 %29, 300
  br i1 %30, label %31, label %36

31:                                               ; preds = %26
  %32 = load ptr, ptr %3, align 8
  %33 = getelementptr inbounds nuw %struct.ProjectionPath, ptr %32, i32 0, i32 1
  %34 = load ptr, ptr %33, align 8
  %35 = call zeroext i1 @ExecSupportsMarkRestore(ptr noundef %34)
  store i1 %35, ptr %2, align 1
  br label %83

36:                                               ; preds = %26
  %37 = load ptr, ptr %3, align 8
  %38 = getelementptr inbounds nuw %struct.Node, ptr %37, i32 0, i32 0
  %39 = load i32, ptr %38, align 4
  %40 = icmp eq i32 %39, 310
  br i1 %40, label %41, label %42

41:                                               ; preds = %36
  store i1 false, ptr %2, align 1
  br label %83

42:                                               ; preds = %36
  %43 = load ptr, ptr %3, align 8
  %44 = getelementptr inbounds nuw %struct.Node, ptr %43, i32 0, i32 0
  %45 = load i32, ptr %44, align 4
  %46 = icmp eq i32 %45, 291
  br i1 %46, label %47, label %48

47:                                               ; preds = %42
  store i1 false, ptr %2, align 1
  br label %83

48:                                               ; preds = %42
  store i1 false, ptr %2, align 1
  br label %83

49:                                               ; preds = %1
  call void @llvm.lifetime.start.p0(i64 8, ptr %4) #6
  %50 = load ptr, ptr %3, align 8
  store ptr %50, ptr %4, align 8
  %51 = load ptr, ptr %4, align 8
  %52 = getelementptr inbounds nuw %struct.AppendPath, ptr %51, i32 0, i32 1
  %53 = load ptr, ptr %52, align 8
  %54 = call i32 @list_length(ptr noundef %53)
  %55 = icmp eq i32 %54, 1
  br i1 %55, label %56, label %63

56:                                               ; preds = %49
  %57 = load ptr, ptr %4, align 8
  %58 = getelementptr inbounds nuw %struct.AppendPath, ptr %57, i32 0, i32 1
  %59 = load ptr, ptr %58, align 8
  %60 = call ptr @list_nth_cell(ptr noundef %59, i32 noundef 0)
  %61 = load ptr, ptr %60, align 8
  %62 = call zeroext i1 @ExecSupportsMarkRestore(ptr noundef %61)
  store i1 %62, ptr %2, align 1
  store i32 1, ptr %5, align 4
  br label %64

63:                                               ; preds = %49
  store i1 false, ptr %2, align 1
  store i32 1, ptr %5, align 4
  br label %64

64:                                               ; preds = %63, %56
  call void @llvm.lifetime.end.p0(i64 8, ptr %4) #6
  br label %83

65:                                               ; preds = %1
  call void @llvm.lifetime.start.p0(i64 8, ptr %6) #6
  %66 = load ptr, ptr %3, align 8
  store ptr %66, ptr %6, align 8
  %67 = load ptr, ptr %6, align 8
  %68 = getelementptr inbounds nuw %struct.MergeAppendPath, ptr %67, i32 0, i32 1
  %69 = load ptr, ptr %68, align 8
  %70 = call i32 @list_length(ptr noundef %69)
  %71 = icmp eq i32 %70, 1
  br i1 %71, label %72, label %79

72:                                               ; preds = %65
  %73 = load ptr, ptr %6, align 8
  %74 = getelementptr inbounds nuw %struct.MergeAppendPath, ptr %73, i32 0, i32 1
  %75 = load ptr, ptr %74, align 8
  %76 = call ptr @list_nth_cell(ptr noundef %75, i32 noundef 0)
  %77 = load ptr, ptr %76, align 8
  %78 = call zeroext i1 @ExecSupportsMarkRestore(ptr noundef %77)
  store i1 %78, ptr %2, align 1
  store i32 1, ptr %5, align 4
  br label %80

79:                                               ; preds = %65
  store i1 false, ptr %2, align 1
  store i32 1, ptr %5, align 4
  br label %80

80:                                               ; preds = %79, %72
  call void @llvm.lifetime.end.p0(i64 8, ptr %6) #6
  br label %83

81:                                               ; preds = %1
  br label %82

82:                                               ; preds = %81
  store i1 false, ptr %2, align 1
  br label %83

83:                                               ; preds = %82, %80, %64, %48, %47, %41, %31, %25, %24, %17, %10
  %84 = load i1, ptr %2, align 1
  ret i1 %84
}