; Function Attrs: nofree norecurse nosync nounwind memory(read, inaccessiblemem: none) uwtable
define dso_local zeroext i1 @ExecSupportsMarkRestore(ptr noundef readonly captures(none) %0) local_unnamed_addr #3 {
  br label %tailrecurse

tailrecurse:                                      ; preds = %tailrecurse.backedge, %1
  %.tr = phi ptr [ %0, %1 ], [ %.tr.be, %tailrecurse.backedge ]
  %2 = getelementptr inbounds nuw i8, ptr %.tr, i64 4
  %3 = load i32, ptr %2, align 4
  switch i32 %3, label %list_length.exit.thread [
    i32 340, label %4
    i32 341, label %4
    i32 359, label %list_length.exit.thread.loopexit
    i32 361, label %list_length.exit.thread.loopexit
    i32 354, label %10
    i32 330, label %14
    i32 333, label %19
    i32 334, label %27
  ]

4:                                                ; preds = %tailrecurse, %tailrecurse
  %5 = getelementptr inbounds nuw i8, ptr %.tr, i64 80
  %6 = load ptr, ptr %5, align 8
  %7 = getelementptr inbounds nuw i8, ptr %6, i64 180
  %8 = load i8, ptr %7, align 4, !range !4, !noundef !5
  %9 = trunc nuw i8 %8 to i1
  br label %list_length.exit.thread

10:                                               ; preds = %tailrecurse
  %11 = getelementptr inbounds nuw i8, ptr %.tr, i64 80
  %12 = load i32, ptr %11, align 8
  %13 = and i32 %12, 2
  %.not = icmp ne i32 %13, 0
  br label %list_length.exit.thread

14:                                               ; preds = %tailrecurse
  %15 = load i32, ptr %.tr, align 4
  %16 = icmp eq i32 %15, 300
  br i1 %16, label %17, label %list_length.exit.thread

17:                                               ; preds = %14
  %18 = getelementptr inbounds nuw i8, ptr %.tr, i64 80
  br label %tailrecurse.backedge

tailrecurse.backedge:                             ; preds = %17, %25, %33
  %.tr.be.in = phi ptr [ %18, %17 ], [ %.val, %25 ], [ %.val12, %33 ]
  %.tr.be = load ptr, ptr %.tr.be.in, align 8
  br label %tailrecurse

19:                                               ; preds = %tailrecurse
  %20 = getelementptr inbounds nuw i8, ptr %.tr, i64 80
  %21 = load ptr, ptr %20, align 8
  %.not.i = icmp eq ptr %21, null
  br i1 %.not.i, label %list_length.exit.thread, label %list_length.exit

list_length.exit:                                 ; preds = %19
  %22 = getelementptr inbounds nuw i8, ptr %21, i64 4
  %23 = load i32, ptr %22, align 4
  %24 = icmp eq i32 %23, 1
  br i1 %24, label %25, label %list_length.exit.thread

25:                                               ; preds = %list_length.exit
  %26 = getelementptr i8, ptr %21, i64 16
  %.val = load ptr, ptr %26, align 8
  br label %tailrecurse.backedge

27:                                               ; preds = %tailrecurse
  %28 = getelementptr inbounds nuw i8, ptr %.tr, i64 80
  %29 = load ptr, ptr %28, align 8
  %.not.i13 = icmp eq ptr %29, null
  br i1 %.not.i13, label %list_length.exit.thread, label %list_length.exit14

list_length.exit14:                               ; preds = %27
  %30 = getelementptr inbounds nuw i8, ptr %29, i64 4
  %31 = load i32, ptr %30, align 4
  %32 = icmp eq i32 %31, 1
  br i1 %32, label %33, label %list_length.exit.thread

33:                                               ; preds = %list_length.exit14
  %34 = getelementptr i8, ptr %29, i64 16
  %.val12 = load ptr, ptr %34, align 8
  br label %tailrecurse.backedge

list_length.exit.thread.loopexit:                 ; preds = %tailrecurse, %tailrecurse
  br label %list_length.exit.thread

list_length.exit.thread:                          ; preds = %27, %19, %list_length.exit14, %list_length.exit, %14, %tailrecurse, %list_length.exit.thread.loopexit, %10, %4
  %.0 = phi i1 [ %9, %4 ], [ %.not, %10 ], [ true, %list_length.exit.thread.loopexit ], [ false, %tailrecurse ], [ false, %14 ], [ false, %list_length.exit ], [ false, %list_length.exit14 ], [ false, %19 ], [ false, %27 ]
  ret i1 %.0
}